target datalayout = "e-m:e-p270:32:32-p271:32:32-p272:64:64-i64:64-i128:128-f80:128-n8:16:32:64-S128"
target triple = "x86_64-pc-linux-gnu"

%struct.estats = type { i32, ptr }
%struct.estate = type { i32, ptr }

@stderr = external global ptr, align 8
@.str.4 = private unnamed_addr constant [58 x i8] c"integer overflow when trying to allocate %zu * %zu bytes\0A\00", align 1
@.str.5 = private unnamed_addr constant [49 x i8] c"out of memory when trying to allocate %zu bytes\0A\00", align 1
@gv_sort_compar = internal thread_local global ptr null, align 8
@gv_sort_arg = internal thread_local global ptr null, align 8

; Function Attrs: inlinehint nounwind uwtable
define internal void @gv_sort(ptr noundef %0, i64 noundef %1, i64 noundef %2, ptr noundef %3, ptr noundef %4) #2 {
  %6 = alloca ptr, align 8
  %7 = alloca i64, align 8
  %8 = alloca i64, align 8
  %9 = alloca ptr, align 8
  %10 = alloca ptr, align 8
  store ptr %0, ptr %6, align 8, !tbaa !25
  store i64 %1, ptr %7, align 8, !tbaa !56
  store i64 %2, ptr %8, align 8, !tbaa !56
  store ptr %3, ptr %9, align 8, !tbaa !25
  store ptr %4, ptr %10, align 8, !tbaa !25
  %11 = load ptr, ptr %9, align 8, !tbaa !25
  %12 = call align 8 ptr @llvm.threadlocal.address.p0(ptr align 8 @gv_sort_compar)
  store ptr %11, ptr %12, align 8, !tbaa !25
  %13 = load ptr, ptr %10, align 8, !tbaa !25
  %14 = call align 8 ptr @llvm.threadlocal.address.p0(ptr align 8 @gv_sort_arg)
  store ptr %13, ptr %14, align 8, !tbaa !25
  %15 = load i64, ptr %7, align 8, !tbaa !56
  %16 = icmp ugt i64 %15, 1
  br i1 %16, label %17, label %21

17:                                               ; preds = %5
  %18 = load ptr, ptr %6, align 8, !tbaa !25
  %19 = load i64, ptr %7, align 8, !tbaa !56
  %20 = load i64, ptr %8, align 8, !tbaa !56
  call void @qsort(ptr noundef %18, i64 noundef %19, i64 noundef %20, ptr noundef @gv_sort_compar_wrapper)
  br label %21

21:                                               ; preds = %17, %5
  %22 = call align 8 ptr @llvm.threadlocal.address.p0(ptr align 8 @gv_sort_compar)
  store ptr null, ptr %22, align 8, !tbaa !25
  %23 = call align 8 ptr @llvm.threadlocal.address.p0(ptr align 8 @gv_sort_arg)
  store ptr null, ptr %23, align 8, !tbaa !25
  ret void
}

; Function Attrs: inlinehint nounwind uwtable
define internal ptr @gv_calloc(i64 noundef %0, i64 noundef %1) #2 {
  %3 = alloca i64, align 8
  %4 = alloca i64, align 8
  %5 = alloca ptr, align 8
  store i64 %0, ptr %3, align 8, !tbaa !56
  store i64 %1, ptr %4, align 8, !tbaa !56
  %6 = load i64, ptr %3, align 8, !tbaa !56
  %7 = icmp ugt i64 %6, 0
  br i1 %7, label %8, label %18

8:                                                ; preds = %2
  %9 = load i64, ptr %3, align 8, !tbaa !56
  %10 = udiv i64 -1, %9
  %11 = load i64, ptr %4, align 8, !tbaa !56
  %12 = icmp ult i64 %10, %11
  br i1 %12, label %13, label %18

13:                                               ; preds = %8
  %14 = load ptr, ptr @stderr, align 8, !tbaa !58
  %15 = load i64, ptr %3, align 8, !tbaa !56
  %16 = load i64, ptr %4, align 8, !tbaa !56
  %17 = call i32 (ptr, ptr, ...) @fprintf(ptr noundef %14, ptr noundef @.str.4, i64 noundef %15, i64 noundef %16) #12
  call void @graphviz_exit(i32 noundef 1) #13
  unreachable

18:                                               ; preds = %8, %2
  call void @llvm.lifetime.start.p0(i64 8, ptr %5) #12
  %19 = load i64, ptr %3, align 8, !tbaa !56
  %20 = load i64, ptr %4, align 8, !tbaa !56
  %21 = call noalias ptr @calloc(i64 noundef %19, i64 noundef %20) #14
  store ptr %21, ptr %5, align 8, !tbaa !25
  %22 = load i64, ptr %3, align 8, !tbaa !56
  %23 = icmp ugt i64 %22, 0
  br i1 %23, label %24, label %36

24:                                               ; preds = %18
  %25 = load i64, ptr %4, align 8, !tbaa !56
  %26 = icmp ugt i64 %25, 0
  br i1 %26, label %27, label %36

27:                                               ; preds = %24
  %28 = load ptr, ptr %5, align 8, !tbaa !25
  %29 = icmp eq ptr %28, null
  br i1 %29, label %30, label %36

30:                                               ; preds = %27
  %31 = load ptr, ptr @stderr, align 8, !tbaa !58
  %32 = load i64, ptr %3, align 8, !tbaa !56
  %33 = load i64, ptr %4, align 8, !tbaa !56
  %34 = mul i64 %32, %33
  %35 = call i32 (ptr, ptr, ...) @fprintf(ptr noundef %31, ptr noundef @.str.5, i64 noundef %34) #12
  call void @graphviz_exit(i32 noundef 1) #13
  unreachable

36:                                               ; preds = %27, %24, %18
  %37 = load ptr, ptr %5, align 8, !tbaa !25
  call void @llvm.lifetime.end.p0(i64 8, ptr %5) #12
  ret ptr %37
}

; Function Attrs: nounwind uwtable
define internal void @edgeStats(ptr noundef %0, ptr noundef %1) #0 {
  %3 = alloca ptr, align 8
  %4 = alloca ptr, align 8
  store ptr %0, ptr %3, align 8, !tbaa !12
  store ptr %1, ptr %4, align 8, !tbaa !25
  %5 = load ptr, ptr %3, align 8, !tbaa !12
  %6 = load ptr, ptr %4, align 8, !tbaa !25
  call void @gts_surface_foreach_edge(ptr noundef %5, ptr noundef @cnt_edge, ptr noundef %6)
  ret void
}

; Function Attrs: nounwind uwtable
define ptr @delaunay_tri(ptr noundef %0, ptr noundef %1, i32 noundef %2, ptr noundef %3) #0 {
  %5 = alloca ptr, align 8
  %6 = alloca ptr, align 8
  %7 = alloca ptr, align 8
  %8 = alloca i32, align 4
  %9 = alloca ptr, align 8
  %10 = alloca ptr, align 8
  %11 = alloca i32, align 4
  %12 = alloca ptr, align 8
  %13 = alloca %struct.estats, align 8
  %14 = alloca %struct.estate, align 8
  %15 = alloca i32, align 4
  %16 = alloca ptr, align 8
  %17 = alloca ptr, align 8
  %18 = alloca i32, align 4
  %19 = alloca i32, align 4
  %20 = alloca i32, align 4
  store ptr %0, ptr %6, align 8, !tbaa !3
  store ptr %1, ptr %7, align 8, !tbaa !3
  store i32 %2, ptr %8, align 4, !tbaa !8
  store ptr %3, ptr %9, align 8, !tbaa !10
  call void @llvm.lifetime.start.p0(i64 8, ptr %10) #12
  %21 = load ptr, ptr %6, align 8, !tbaa !3
  %22 = load ptr, ptr %7, align 8, !tbaa !3
  %23 = load i32, ptr %8, align 4, !tbaa !8
  %24 = call ptr @tri(ptr noundef %21, ptr noundef %22, i32 noundef %23, ptr noundef null, i32 noundef 0, i32 noundef 1)
  store ptr %24, ptr %10, align 8, !tbaa !12
  call void @llvm.lifetime.start.p0(i64 4, ptr %11) #12
  call void @llvm.lifetime.start.p0(i64 8, ptr %12) #12
  call void @llvm.lifetime.start.p0(i64 16, ptr %13) #12
  call void @llvm.lifetime.start.p0(i64 16, ptr %14) #12
  %25 = load ptr, ptr %10, align 8, !tbaa !12
  %26 = icmp ne ptr %25, null
  br i1 %26, label %28, label %27

27:                                               ; preds = %4
  store ptr null, ptr %5, align 8
  store i32 1, ptr %15, align 4
  br label %115

28:                                               ; preds = %4
  %29 = getelementptr inbounds nuw %struct.estats, ptr %13, i32 0, i32 0
  store i32 0, ptr %29, align 8, !tbaa !14
  %30 = getelementptr inbounds nuw %struct.estats, ptr %13, i32 0, i32 1
  store ptr null, ptr %30, align 8, !tbaa !16
  %31 = load ptr, ptr %10, align 8, !tbaa !12
  call void @edgeStats(ptr noundef %31, ptr noundef %13)
  %32 = getelementptr inbounds nuw %struct.estats, ptr %13, i32 0, i32 0
  %33 = load i32, ptr %32, align 8, !tbaa !14
  store i32 %33, ptr %11, align 4, !tbaa !8
  %34 = load ptr, ptr %9, align 8, !tbaa !10
  store i32 %33, ptr %34, align 4, !tbaa !8
  %35 = load i32, ptr %11, align 4, !tbaa !8
  %36 = icmp ne i32 %35, 0
  br i1 %36, label %37, label %46

37:                                               ; preds = %28
  %38 = load i32, ptr %11, align 4, !tbaa !8
  %39 = mul nsw i32 2, %38
  %40 = sext i32 %39 to i64
  %41 = call ptr @gv_calloc(i64 noundef %40, i64 noundef 4)
  store ptr %41, ptr %12, align 8, !tbaa !10
  %42 = getelementptr inbounds nuw %struct.estate, ptr %14, i32 0, i32 0
  store i32 0, ptr %42, align 8, !tbaa !17
  %43 = load ptr, ptr %12, align 8, !tbaa !10
  %44 = getelementptr inbounds nuw %struct.estate, ptr %14, i32 0, i32 1
  store ptr %43, ptr %44, align 8, !tbaa !19
  %45 = load ptr, ptr %10, align 8, !tbaa !12
  call void @gts_surface_foreach_edge(ptr noundef %45, ptr noundef @addEdge, ptr noundef %14)
  br label %112

46:                                               ; preds = %28
  call void @llvm.lifetime.start.p0(i64 8, ptr %16) #12
  %47 = load i32, ptr %8, align 4, !tbaa !8
  %48 = sext i32 %47 to i64
  %49 = call ptr @gv_calloc(i64 noundef %48, i64 noundef 4)
  store ptr %49, ptr %16, align 8, !tbaa !10
  call void @llvm.lifetime.start.p0(i64 8, ptr %17) #12
  call void @llvm.lifetime.start.p0(i64 4, ptr %18) #12
  call void @llvm.lifetime.start.p0(i64 4, ptr %19) #12
  call void @llvm.lifetime.start.p0(i64 4, ptr %20) #12
  %50 = load i32, ptr %8, align 4, !tbaa !8
  %51 = sub nsw i32 %50, 1
  store i32 %51, ptr %11, align 4, !tbaa !8
  %52 = load ptr, ptr %9, align 8, !tbaa !10
  store i32 %51, ptr %52, align 4, !tbaa !8
  %53 = load i32, ptr %11, align 4, !tbaa !8
  %54 = mul nsw i32 2, %53
  %55 = sext i32 %54 to i64
  %56 = call ptr @gv_calloc(i64 noundef %55, i64 noundef 4)
  store ptr %56, ptr %12, align 8, !tbaa !10
  store ptr %56, ptr %17, align 8, !tbaa !10
  store i32 0, ptr %18, align 4, !tbaa !8
  br label %57

57:                                               ; preds = %67, %46
  %58 = load i32, ptr %18, align 4, !tbaa !8
  %59 = load i32, ptr %8, align 4, !tbaa !8
  %60 = icmp slt i32 %58, %59
  br i1 %60, label %61, label %70

61:                                               ; preds = %57
  %62 = load i32, ptr %18, align 4, !tbaa !8
  %63 = load ptr, ptr %16, align 8, !tbaa !10
  %64 = load i32, ptr %18, align 4, !tbaa !8
  %65 = sext i32 %64 to i64
  %66 = getelementptr inbounds i32, ptr %63, i64 %65
  store i32 %62, ptr %66, align 4, !tbaa !8
  br label %67

67:                                               ; preds = %61
  %68 = load i32, ptr %18, align 4, !tbaa !8
  %69 = add nsw i32 %68, 1
  store i32 %69, ptr %18, align 4, !tbaa !8
  br label %57, !llvm.loop !20

70:                                               ; preds = %57
  %71 = load ptr, ptr %16, align 8, !tbaa !10
  %72 = load i32, ptr %8, align 4, !tbaa !8
  %73 = sext i32 %72 to i64
  %74 = load ptr, ptr %6, align 8, !tbaa !3
  %75 = getelementptr inbounds double, ptr %74, i64 0
  %76 = load double, ptr %75, align 8, !tbaa !22
  %77 = load ptr, ptr %6, align 8, !tbaa !3
  %78 = getelementptr inbounds double, ptr %77, i64 1
  %79 = load double, ptr %78, align 8, !tbaa !22
  %80 = fcmp oeq double %76, %79
  br i1 %80, label %81, label %83

81:                                               ; preds = %70
  %82 = load ptr, ptr %7, align 8, !tbaa !3
  br label %85

83:                                               ; preds = %70
  %84 = load ptr, ptr %6, align 8, !tbaa !3
  br label %85

85:                                               ; preds = %83, %81
  %86 = phi ptr [ %82, %81 ], [ %84, %83 ]
  call void @gv_sort(ptr noundef %71, i64 noundef %73, i64 noundef 4, ptr noundef @vcmp, ptr noundef %86)
  %87 = load ptr, ptr %16, align 8, !tbaa !10
  %88 = getelementptr inbounds i32, ptr %87, i64 0
  %89 = load i32, ptr %88, align 4, !tbaa !8
  store i32 %89, ptr %20, align 4, !tbaa !8
  store i32 1, ptr %18, align 4, !tbaa !8
  br label %90

90:                                               ; preds = %107, %85
  %91 = load i32, ptr %18, align 4, !tbaa !8
  %92 = load i32, ptr %8, align 4, !tbaa !8
  %93 = icmp slt i32 %91, %92
  br i1 %93, label %94, label %110

94:                                               ; preds = %90
  %95 = load ptr, ptr %16, align 8, !tbaa !10
  %96 = load i32, ptr %18, align 4, !tbaa !8
  %97 = sext i32 %96 to i64
  %98 = getelementptr inbounds i32, ptr %95, i64 %97
  %99 = load i32, ptr %98, align 4, !tbaa !8
  store i32 %99, ptr %19, align 4, !tbaa !8
  %100 = load i32, ptr %20, align 4, !tbaa !8
  %101 = load ptr, ptr %17, align 8, !tbaa !10
  %102 = getelementptr inbounds nuw i32, ptr %101, i32 1
  store ptr %102, ptr %17, align 8, !tbaa !10
  store i32 %100, ptr %101, align 4, !tbaa !8
  %103 = load i32, ptr %19, align 4, !tbaa !8
  %104 = load ptr, ptr %17, align 8, !tbaa !10
  %105 = getelementptr inbounds nuw i32, ptr %104, i32 1
  store ptr %105, ptr %17, align 8, !tbaa !10
  store i32 %103, ptr %104, align 4, !tbaa !8
  %106 = load i32, ptr %19, align 4, !tbaa !8
  store i32 %106, ptr %20, align 4, !tbaa !8
  br label %107

107:                                              ; preds = %94
  %108 = load i32, ptr %18, align 4, !tbaa !8
  %109 = add nsw i32 %108, 1
  store i32 %109, ptr %18, align 4, !tbaa !8
  br label %90, !llvm.loop !24

110:                                              ; preds = %90
  %111 = load ptr, ptr %16, align 8, !tbaa !10
  call void @free(ptr noundef %111) #12
  call void @llvm.lifetime.end.p0(i64 4, ptr %20) #12
  call void @llvm.lifetime.end.p0(i64 4, ptr %19) #12
  call void @llvm.lifetime.end.p0(i64 4, ptr %18) #12
  call void @llvm.lifetime.end.p0(i64 8, ptr %17) #12
  call void @llvm.lifetime.end.p0(i64 8, ptr %16) #12
  br label %112

112:                                              ; preds = %110, %37
  %113 = load ptr, ptr %10, align 8, !tbaa !12
  call void @gts_object_destroy(ptr noundef %113)
  %114 = load ptr, ptr %12, align 8, !tbaa !10
  store ptr %114, ptr %5, align 8
  store i32 1, ptr %15, align 4
  br label %115

115:                                              ; preds = %112, %27
  call void @llvm.lifetime.end.p0(i64 16, ptr %14) #12
  call void @llvm.lifetime.end.p0(i64 16, ptr %13) #12
  call void @llvm.lifetime.end.p0(i64 8, ptr %12) #12
  call void @llvm.lifetime.end.p0(i64 4, ptr %11) #12
  call void @llvm.lifetime.end.p0(i64 8, ptr %10) #12
  %116 = load ptr, ptr %5, align 8
  ret ptr %116
}