; Function Attrs: nounwind uwtable
define noundef ptr @delaunay_tri(ptr noundef %0, ptr noundef %1, i32 noundef %2, ptr noundef writeonly captures(none) %3) local_unnamed_addr #0 {
  %5 = alloca %struct.estats, align 8
  %6 = alloca %struct.estate, align 8
  %7 = tail call fastcc ptr @tri(ptr noundef %0, ptr noundef %1, i32 noundef %2, ptr noundef null, i32 noundef 0, i32 noundef 1)
  call void @llvm.lifetime.start.p0(i64 16, ptr nonnull %5) #19
  call void @llvm.lifetime.start.p0(i64 16, ptr nonnull %6) #19
  %.not = icmp eq ptr %7, null
  br i1 %.not, label %69, label %8

8:                                                ; preds = %4
  store i32 0, ptr %5, align 8, !tbaa !3
  %9 = getelementptr inbounds nuw i8, ptr %5, i64 8
  store ptr null, ptr %9, align 8, !tbaa !9
  call void @gts_surface_foreach_edge(ptr noundef nonnull %7, ptr noundef nonnull @cnt_edge, ptr noundef nonnull %5) #19
  %10 = load i32, ptr %5, align 8, !tbaa !3
  store i32 %10, ptr %3, align 4, !tbaa !10
  %.not47 = icmp eq i32 %10, 0
  br i1 %.not47, label %25, label %11

11:                                               ; preds = %8
  %12 = shl nsw i32 %10, 1
  %13 = sext i32 %12 to i64
  %mul.ov.i = icmp slt i32 %10, 0
  br i1 %mul.ov.i, label %14, label %17

14:                                               ; preds = %11
  %15 = load ptr, ptr @stderr, align 8, !tbaa !11
  %16 = call i32 (ptr, ptr, ...) @fprintf(ptr noundef %15, ptr noundef nonnull @.str.4, i64 noundef range(i64 -2147483648, 2147483648) %13, i64 noundef 4) #20
  call fastcc void @graphviz_exit() #21
  unreachable

17:                                               ; preds = %11
  %18 = call noalias ptr @calloc(i64 noundef range(i64 -2147483648, 2147483648) %13, i64 noundef 4) #22
  %19 = icmp eq ptr %18, null
  br i1 %19, label %20, label %gv_calloc.exit

20:                                               ; preds = %17
  %21 = load ptr, ptr @stderr, align 8, !tbaa !11
  %22 = shl nuw nsw i64 %13, 2
  %23 = call i32 (ptr, ptr, ...) @fprintf(ptr noundef %21, ptr noundef nonnull @.str.5, i64 noundef %22) #20
  call fastcc void @graphviz_exit() #21
  unreachable

gv_calloc.exit:                                   ; preds = %17
  store i32 0, ptr %6, align 8, !tbaa !13
  %24 = getelementptr inbounds nuw i8, ptr %6, i64 8
  store ptr %18, ptr %24, align 8, !tbaa !16
  call void @gts_surface_foreach_edge(ptr noundef nonnull %7, ptr noundef nonnull @addEdge, ptr noundef nonnull %6) #19
  br label %68

25:                                               ; preds = %8
  %26 = sext i32 %2 to i64
  %.not.i48 = icmp eq i32 %2, 0
  br i1 %.not.i48, label %42, label %27

27:                                               ; preds = %25
  %mul.ov.i50 = icmp slt i32 %2, 0
  br i1 %mul.ov.i50, label %28, label %31

28:                                               ; preds = %27
  %29 = load ptr, ptr @stderr, align 8, !tbaa !11
  %30 = call i32 (ptr, ptr, ...) @fprintf(ptr noundef %29, ptr noundef nonnull @.str.4, i64 noundef range(i64 -2147483648, 2147483648) %26, i64 noundef 4) #20
  call fastcc void @graphviz_exit() #21
  unreachable

31:                                               ; preds = %27
  %32 = call noalias ptr @calloc(i64 noundef range(i64 -2147483648, 2147483648) %26, i64 noundef 4) #22
  %33 = icmp eq ptr %32, null
  br i1 %33, label %34, label %gv_calloc.exit52

34:                                               ; preds = %31
  %35 = load ptr, ptr @stderr, align 8, !tbaa !11
  %36 = shl nuw nsw i64 %26, 2
  %37 = call i32 (ptr, ptr, ...) @fprintf(ptr noundef %35, ptr noundef nonnull @.str.5, i64 noundef %36) #20
  call fastcc void @graphviz_exit() #21
  unreachable

gv_calloc.exit52:                                 ; preds = %31
  %38 = add nsw i32 %2, -1
  store i32 %38, ptr %3, align 4, !tbaa !10
  %39 = shl nuw nsw i32 %38, 1
  %40 = zext nneg i32 %39 to i64
  %.not.i53 = icmp eq i32 %38, 0
  br i1 %.not.i53, label %.thread.i56, label %45

.thread.i56:                                      ; preds = %gv_calloc.exit52
  %41 = call noalias ptr @calloc(i64 noundef 0, i64 noundef 4) #22
  br label %.lr.ph.preheader

42:                                               ; preds = %25
  store i32 -1, ptr %3, align 4, !tbaa !10
  %43 = load ptr, ptr @stderr, align 8, !tbaa !11
  %44 = call i32 (ptr, ptr, ...) @fprintf(ptr noundef %43, ptr noundef nonnull @.str.4, i64 noundef range(i64 -2147483648, 2147483648) -2, i64 noundef 4) #20
  call fastcc void @graphviz_exit() #21
  unreachable

45:                                               ; preds = %gv_calloc.exit52
  %46 = call noalias ptr @calloc(i64 noundef range(i64 -2147483648, 2147483648) %40, i64 noundef 4) #22
  %47 = icmp eq ptr %46, null
  br i1 %47, label %48, label %.lr.ph.preheader

48:                                               ; preds = %45
  %49 = load ptr, ptr @stderr, align 8, !tbaa !11
  %50 = shl nuw nsw i64 %40, 2
  %51 = call i32 (ptr, ptr, ...) @fprintf(ptr noundef %49, ptr noundef nonnull @.str.5, i64 noundef %50) #20
  call fastcc void @graphviz_exit() #21
  unreachable

.lr.ph.preheader:                                 ; preds = %45, %.thread.i56
  %52 = phi ptr [ %41, %.thread.i56 ], [ %46, %45 ]
  %wide.trip.count = zext nneg i32 %2 to i64
  br label %.lr.ph

.lr.ph:                                           ; preds = %.lr.ph.preheader, %.lr.ph
  %indvars.iv = phi i64 [ 0, %.lr.ph.preheader ], [ %indvars.iv.next, %.lr.ph ]
  %53 = getelementptr inbounds nuw i32, ptr %32, i64 %indvars.iv
  %54 = trunc nuw nsw i64 %indvars.iv to i32
  store i32 %54, ptr %53, align 4, !tbaa !10
  %indvars.iv.next = add nuw nsw i64 %indvars.iv, 1
  %exitcond.not = icmp eq i64 %indvars.iv.next, %wide.trip.count
  br i1 %exitcond.not, label %._crit_edge, label %.lr.ph, !llvm.loop !17

._crit_edge:                                      ; preds = %.lr.ph
  %55 = load double, ptr %0, align 8, !tbaa !19
  %56 = getelementptr inbounds nuw i8, ptr %0, i64 8
  %57 = load double, ptr %56, align 8, !tbaa !19
  %58 = fcmp oeq double %55, %57
  %59 = select i1 %58, ptr %1, ptr %0
  %60 = call align 8 ptr @llvm.threadlocal.address.p0(ptr align 8 @gv_sort_compar)
  store ptr @vcmp, ptr %60, align 8, !tbaa !21
  %61 = call align 8 ptr @llvm.threadlocal.address.p0(ptr align 8 @gv_sort_arg)
  store ptr %59, ptr %61, align 8, !tbaa !21
  %.not72 = icmp eq i32 %2, 1
  br i1 %.not72, label %gv_sort.exit.thread, label %gv_sort.exit

gv_sort.exit.thread:                              ; preds = %._crit_edge
  store ptr null, ptr %60, align 8, !tbaa !21
  store ptr null, ptr %61, align 8, !tbaa !21
  br label %._crit_edge63

gv_sort.exit:                                     ; preds = %._crit_edge
  call void @qsort(ptr noundef nonnull %32, i64 noundef range(i64 -2147483648, 2147483648) %26, i64 noundef 4, ptr noundef nonnull @gv_sort_compar_wrapper) #19
  store ptr null, ptr %60, align 8, !tbaa !21
  store ptr null, ptr %61, align 8, !tbaa !21
  %62 = icmp sgt i32 %2, 1
  br i1 %62, label %.lr.ph62.preheader, label %._crit_edge63

.lr.ph62.preheader:                               ; preds = %gv_sort.exit
  %63 = load i32, ptr %32, align 4, !tbaa !10
  %wide.trip.count68 = zext nneg i32 %2 to i64
  br label %.lr.ph62

.lr.ph62:                                         ; preds = %.lr.ph62.preheader, %.lr.ph62
  %indvars.iv65 = phi i64 [ 1, %.lr.ph62.preheader ], [ %indvars.iv.next66, %.lr.ph62 ]
  %.061 = phi i32 [ %63, %.lr.ph62.preheader ], [ %65, %.lr.ph62 ]
  %.04259 = phi ptr [ %52, %.lr.ph62.preheader ], [ %67, %.lr.ph62 ]
  %64 = getelementptr inbounds nuw i32, ptr %32, i64 %indvars.iv65
  %65 = load i32, ptr %64, align 4, !tbaa !10
  %66 = getelementptr inbounds nuw i8, ptr %.04259, i64 4
  store i32 %.061, ptr %.04259, align 4, !tbaa !10
  %67 = getelementptr inbounds nuw i8, ptr %.04259, i64 8
  store i32 %65, ptr %66, align 4, !tbaa !10
  %indvars.iv.next66 = add nuw nsw i64 %indvars.iv65, 1
  %exitcond69.not = icmp eq i64 %indvars.iv.next66, %wide.trip.count68
  br i1 %exitcond69.not, label %._crit_edge63, label %.lr.ph62, !llvm.loop !22

._crit_edge63:                                    ; preds = %.lr.ph62, %gv_sort.exit.thread, %gv_sort.exit
  call void @free(ptr noundef nonnull %32) #19
  br label %68

68:                                               ; preds = %._crit_edge63, %gv_calloc.exit
  %.043 = phi ptr [ %18, %gv_calloc.exit ], [ %52, %._crit_edge63 ]
  call void @gts_object_destroy(ptr noundef nonnull %7) #19
  br label %69

69:                                               ; preds = %4, %68
  %.040 = phi ptr [ %.043, %68 ], [ null, %4 ]
  call void @llvm.lifetime.end.p0(i64 16, ptr nonnull %6) #19
  call void @llvm.lifetime.end.p0(i64 16, ptr nonnull %5) #19
  ret ptr %.040
}